; Function Attrs: mustprogress uwtable
define hidden void @_ZN14context_params8set_uintERjPKcS2_(ptr nocapture nonnull readnone align 8 %this, ptr nocapture noundef nonnull writeonly align 4 dereferenceable(4) %opt, ptr noundef %param, ptr noundef %value) local_unnamed_addr #3 align 2 personality ptr @__gxx_personality_v0 {
entry:
  %endptr = alloca ptr, align 8
  %strm = alloca %"class.std::__cxx11::basic_stringstream", align 8
  %ref.tmp = alloca %"class.std::__cxx11::basic_string", align 8
  %call = call i64 @strtol(ptr noundef %value, ptr noundef nonnull %endptr, i32 noundef 10) #11
  %conv = trunc i64 %call to i32
  store i32 %conv, ptr %opt, align 4
  %0 = load i8, ptr %value, align 1
  %tobool.not = icmp eq i8 %0, 0
  br i1 %tobool.not, label %if.then, label %lor.lhs.false

lor.lhs.false:                                    ; preds = %entry
  %1 = load ptr, ptr %endptr, align 8
  %2 = load i8, ptr %1, align 1
  %tobool2.not = icmp eq i8 %2, 0
  br i1 %tobool2.not, label %if.end, label %if.then

if.then:                                          ; preds = %lor.lhs.false, %entry
  call void @_ZNSt7__cxx1118basic_stringstreamIcSt11char_traitsIcESaIcEEC1Ev(ptr noundef nonnull align 8 dereferenceable(128) %strm)
  %add.ptr = getelementptr inbounds i8, ptr %strm, i64 16
  %call3 = invoke noundef nonnull align 8 dereferenceable(8) ptr @_ZStlsISt11char_traitsIcEERSt13basic_ostreamIcT_ES5_PKc(ptr noundef nonnull align 8 dereferenceable(8) %add.ptr, ptr noundef nonnull @.str.3)
          to label %invoke.cont unwind label %lpad

invoke.cont:                                      ; preds = %if.then
  %call5 = invoke noundef nonnull align 8 dereferenceable(8) ptr @_ZStlsISt11char_traitsIcEERSt13basic_ostreamIcT_ES5_PKc(ptr noundef nonnull align 8 dereferenceable(8) %call3, ptr noundef nonnull %value)
          to label %invoke.cont4 unwind label %lpad

invoke.cont4:                                     ; preds = %invoke.cont
  %call7 = invoke noundef nonnull align 8 dereferenceable(8) ptr @_ZStlsISt11char_traitsIcEERSt13basic_ostreamIcT_ES5_PKc(ptr noundef nonnull align 8 dereferenceable(8) %call5, ptr noundef nonnull @.str.6)
          to label %invoke.cont6 unwind label %lpad

invoke.cont6:                                     ; preds = %invoke.cont4
  %call9 = invoke noundef nonnull align 8 dereferenceable(8) ptr @_ZStlsISt11char_traitsIcEERSt13basic_ostreamIcT_ES5_PKc(ptr noundef nonnull align 8 dereferenceable(8) %call7, ptr noundef %param)
          to label %invoke.cont8 unwind label %lpad

invoke.cont8:                                     ; preds = %invoke.cont6
  %call11 = invoke noundef nonnull align 8 dereferenceable(8) ptr @_ZStlsISt11char_traitsIcEERSt13basic_ostreamIcT_ES5_PKc(ptr noundef nonnull align 8 dereferenceable(8) %call9, ptr noundef nonnull @.str.5)
          to label %invoke.cont10 unwind label %lpad

invoke.cont10:                                    ; preds = %invoke.cont8
  %exception = call ptr @__cxa_allocate_exception(i64 40) #11
  invoke void @_ZNKSt7__cxx1118basic_stringstreamIcSt11char_traitsIcESaIcEE3strEv(ptr nonnull sret(%"class.std::__cxx11::basic_string") align 8 %ref.tmp, ptr noundef nonnull align 8 dereferenceable(128) %strm)
          to label %invoke.cont13 unwind label %cleanup.action

invoke.cont13:                                    ; preds = %invoke.cont10
  store ptr getelementptr inbounds ({ [6 x ptr] }, ptr @_ZTV17default_exception, i64 0, i32 0, i64 2), ptr %exception, align 8
  %m_msg.i = getelementptr inbounds i8, ptr %exception, i64 8
  call void @_ZNSt7__cxx1112basic_stringIcSt11char_traitsIcESaIcEEC1EOS4_(ptr noundef nonnull align 8 dereferenceable(32) %m_msg.i, ptr noundef nonnull align 8 dereferenceable(32) %ref.tmp) #11
  invoke void @__cxa_throw(ptr nonnull %exception, ptr nonnull @_ZTI17default_exception, ptr nonnull @_ZN17default_exceptionD2Ev) #13
          to label %unreachable unwind label %ehcleanup

lpad:                                             ; preds = %invoke.cont8, %invoke.cont6, %invoke.cont4, %invoke.cont, %if.then
  %3 = landingpad { ptr, i32 }
          cleanup
  br label %ehcleanup16

ehcleanup:                                        ; preds = %invoke.cont13
  %4 = landingpad { ptr, i32 }
          cleanup
  call void @_ZNSt7__cxx1112basic_stringIcSt11char_traitsIcESaIcEED1Ev(ptr noundef nonnull align 8 dereferenceable(32) %ref.tmp) #11
  br label %ehcleanup16

cleanup.action:                                   ; preds = %invoke.cont10
  %5 = landingpad { ptr, i32 }
          cleanup
  call void @__cxa_free_exception(ptr %exception) #11
  br label %ehcleanup16

ehcleanup16:                                      ; preds = %ehcleanup, %cleanup.action, %lpad
  %.pn.pn = phi { ptr, i32 } [ %5, %cleanup.action ], [ %4, %ehcleanup ], [ %3, %lpad ]
  call void @_ZNSt7__cxx1118basic_stringstreamIcSt11char_traitsIcESaIcEED1Ev(ptr noundef nonnull align 8 dereferenceable(128) %strm) #11
  resume { ptr, i32 } %.pn.pn

if.end:                                           ; preds = %lor.lhs.false
  ret void

unreachable:                                      ; preds = %invoke.cont13
  unreachable
}